target datalayout = "e-m:e-p270:32:32-p271:32:32-p272:64:64-i64:64-i128:128-f80:128-n8:16:32:64-S128"
target triple = "x86_64-pc-linux-gnu"

%class.symbol = type { ptr }
%"class.sls::solver" = type { %"class.euf::th_euf_solver.base", %"class.sls::smt_context", %class.ref, ptr, i32, i8, %class.statistics }
%"class.euf::th_euf_solver.base" = type <{ %"class.euf::th_solver", ptr, %class.ptr_vector, %class.svector.1, i32 }>
%"class.euf::th_solver" = type { %"class.sat::extension", %"class.euf::th_model_builder", %"class.euf::th_decompile", %"class.euf::th_internalizer", ptr }
%"class.sat::extension" = type { ptr, i8, i32, %class.symbol, ptr }
%"class.euf::th_model_builder" = type { ptr }
%"class.euf::th_decompile" = type { ptr }
%"class.euf::th_internalizer" = type { ptr, %class.ptr_vector, %class.svector }
%class.svector = type { %class.vector.0 }
%class.vector.0 = type { ptr }
%class.ptr_vector = type { %class.vector }
%class.vector = type { ptr }
%class.svector.1 = type { %class.vector.2 }
%class.vector.2 = type { ptr }
%"class.sls::smt_context" = type { ptr }
%class.ref = type { ptr }
%class.statistics = type { %class.svector.3, %class.svector.5 }
%class.svector.3 = type { %class.vector.4 }
%class.vector.4 = type { ptr }
%class.svector.5 = type { %class.vector.6 }
%class.vector.6 = type { ptr }

; Function Attrs: mustprogress uwtable
define hidden void @_ZN3sls6solver11init_searchEv(ptr noundef nonnull align 8 dereferenceable(160) %0) unnamed_addr #4 align 2 {
  %2 = alloca ptr, align 8
  store ptr %0, ptr %2, align 8, !tbaa !3
  %3 = load ptr, ptr %2, align 8
  %4 = getelementptr inbounds nuw %"class.sls::solver", ptr %3, i32 0, i32 3
  %5 = load ptr, ptr %4, align 8, !tbaa !12
  %6 = icmp ne ptr %5, null
  br i1 %6, label %7, label %11

7:                                                ; preds = %1
  %8 = load ptr, ptr %3, align 8, !tbaa !10
  %9 = getelementptr inbounds ptr, ptr %8, i64 62
  %10 = load ptr, ptr %9, align 8
  call void %10(ptr noundef nonnull align 8 dereferenceable(160) %3)
  br label %11

11:                                               ; preds = %7, %1
  %12 = call noalias noundef ptr @_ZN6memory8allocateEm(i64 noundef 3024)
  %13 = getelementptr inbounds i8, ptr %3, i64 112
  call void @_ZN3sls10smt_pluginC1ERNS_11smt_contextE(ptr noundef nonnull align 8 dereferenceable(3024) %12, ptr noundef nonnull align 8 dereferenceable(8) %13)
  %14 = getelementptr inbounds nuw %"class.sls::solver", ptr %3, i32 0, i32 3
  store ptr %12, ptr %14, align 8, !tbaa !12
  %15 = getelementptr inbounds nuw %"class.sls::solver", ptr %3, i32 0, i32 5
  store i8 0, ptr %15, align 4, !tbaa !48
  ret void
}