; Function Attrs: mustprogress uwtable
define hidden void @_ZN3sls6solver11init_searchEv(ptr noundef nonnull align 8 dereferenceable(160) %0) unnamed_addr #3 align 2 {
  %2 = getelementptr inbounds nuw i8, ptr %0, i64 128
  %3 = load ptr, ptr %2, align 8, !tbaa !386
  %.not = icmp eq ptr %3, null
  br i1 %.not, label %8, label %4

4:                                                ; preds = %1
  %5 = load ptr, ptr %0, align 8, !tbaa !384
  %6 = getelementptr inbounds nuw i8, ptr %5, i64 496
  %7 = load ptr, ptr %6, align 8
  tail call void %7(ptr noundef nonnull align 8 dereferenceable(160) %0)
  br label %8

8:                                                ; preds = %4, %1
  %9 = tail call noalias noundef ptr @_ZN6memory8allocateEm(i64 noundef 3024)
  %10 = getelementptr inbounds nuw i8, ptr %0, i64 112
  tail call void @_ZN3sls10smt_pluginC1ERNS_11smt_contextE(ptr noundef nonnull align 8 dereferenceable(3024) %9, ptr noundef nonnull align 8 dereferenceable(8) %10)
  store ptr %9, ptr %2, align 8, !tbaa !386
  %11 = getelementptr inbounds nuw i8, ptr %0, i64 140
  store i8 0, ptr %11, align 4, !tbaa !421
  ret void
}